; ModuleID = '35/2112.c'
source_filename = "35/2112.c"
target datalayout = "e-m:e-p270:32:32-p271:32:32-p272:64:64-i64:64-f80:128-n8:16:32:64-S128"
target triple = "x86_64-pc-linux-gnu"

@.str = private unnamed_addr constant [6 x i8] c"%d,%d\00", align 1
@.str.1 = private unnamed_addr constant [3 x i8] c"%d\00", align 1
@.str.2 = private unnamed_addr constant [6 x i8] c"%d+%d\00", align 1
@.str.3 = private unnamed_addr constant [3 x i8] c"No\00", align 1

; Function Attrs: noinline nounwind uwtable
define dso_local i32 @main() #0 {
  %1 = alloca i32, align 4
  %2 = alloca i32, align 4
  %3 = alloca i32, align 4
  %4 = alloca [8 x [8 x i32]], align 16
  %5 = alloca i32, align 4
  %6 = alloca i32, align 4
  %7 = alloca i32, align 4
  %8 = alloca i32, align 4
  %9 = alloca i32, align 4
  %10 = alloca i32, align 4
  %11 = alloca [1 x [2 x i32]], align 4
  store i32 0, i32* %1, align 4
  store i32 0, i32* %10, align 4
  %12 = call i32 (i8*, ...) @__isoc99_scanf(i8* getelementptr inbounds ([6 x i8], [6 x i8]* @.str, i64 0, i64 0), i32* %2, i32* %3)
  store i32 0, i32* %5, align 4
  br label %13

13:                                               ; preds = %34, %0
  %14 = load i32, i32* %5, align 4
  %15 = load i32, i32* %2, align 4
  %16 = icmp slt i32 %14, %15
  br i1 %16, label %17, label %37

17:                                               ; preds = %13
  store i32 0, i32* %6, align 4
  br label %18

18:                                               ; preds = %30, %17
  %19 = load i32, i32* %6, align 4
  %20 = load i32, i32* %3, align 4
  %21 = icmp slt i32 %19, %20
  br i1 %21, label %22, label %33

22:                                               ; preds = %18
  %23 = load i32, i32* %5, align 4
  %24 = sext i32 %23 to i64
  %25 = getelementptr inbounds [8 x [8 x i32]], [8 x [8 x i32]]* %4, i64 0, i64 %24
  %26 = load i32, i32* %6, align 4
  %27 = sext i32 %26 to i64
  %28 = getelementptr inbounds [8 x i32], [8 x i32]* %25, i64 0, i64 %27
  %29 = call i32 (i8*, ...) @__isoc99_scanf(i8* getelementptr inbounds ([3 x i8], [3 x i8]* @.str.1, i64 0, i64 0), i32* %28)
  br label %30

30:                                               ; preds = %22
  %31 = load i32, i32* %6, align 4
  %32 = add nsw i32 %31, 1
  store i32 %32, i32* %6, align 4
  br label %18

33:                                               ; preds = %18
  br label %34

34:                                               ; preds = %33
  %35 = load i32, i32* %5, align 4
  %36 = add nsw i32 %35, 1
  store i32 %36, i32* %5, align 4
  br label %13

37:                                               ; preds = %13
  store i32 0, i32* %7, align 4
  br label %38

38:                                               ; preds = %138, %37
  %39 = load i32, i32* %7, align 4
  %40 = load i32, i32* %2, align 4
  %41 = icmp slt i32 %39, %40
  br i1 %41, label %42, label %141

42:                                               ; preds = %38
  %43 = load i32, i32* %7, align 4
  %44 = sext i32 %43 to i64
  %45 = getelementptr inbounds [8 x [8 x i32]], [8 x [8 x i32]]* %4, i64 0, i64 %44
  %46 = getelementptr inbounds [8 x i32], [8 x i32]* %45, i64 0, i64 0
  %47 = load i32, i32* %46, align 16
  %48 = getelementptr inbounds [1 x [2 x i32]], [1 x [2 x i32]]* %11, i64 0, i64 0
  %49 = getelementptr inbounds [2 x i32], [2 x i32]* %48, i64 0, i64 0
  store i32 %47, i32* %49, align 4
  store i32 0, i32* %8, align 4
  store i32 0, i32* %5, align 4
  br label %50

50:                                               ; preds = %78, %42
  %51 = load i32, i32* %5, align 4
  %52 = load i32, i32* %3, align 4
  %53 = icmp slt i32 %51, %52
  br i1 %53, label %54, label %81

54:                                               ; preds = %50
  %55 = load i32, i32* %7, align 4
  %56 = sext i32 %55 to i64
  %57 = getelementptr inbounds [8 x [8 x i32]], [8 x [8 x i32]]* %4, i64 0, i64 %56
  %58 = load i32, i32* %5, align 4
  %59 = sext i32 %58 to i64
  %60 = getelementptr inbounds [8 x i32], [8 x i32]* %57, i64 0, i64 %59
  %61 = load i32, i32* %60, align 4
  %62 = getelementptr inbounds [1 x [2 x i32]], [1 x [2 x i32]]* %11, i64 0, i64 0
  %63 = getelementptr inbounds [2 x i32], [2 x i32]* %62, i64 0, i64 0
  %64 = load i32, i32* %63, align 4
  %65 = icmp sgt i32 %61, %64
  br i1 %65, label %66, label %77

66:                                               ; preds = %54
  %67 = load i32, i32* %7, align 4
  %68 = sext i32 %67 to i64
  %69 = getelementptr inbounds [8 x [8 x i32]], [8 x [8 x i32]]* %4, i64 0, i64 %68
  %70 = load i32, i32* %5, align 4
  %71 = sext i32 %70 to i64
  %72 = getelementptr inbounds [8 x i32], [8 x i32]* %69, i64 0, i64 %71
  %73 = load i32, i32* %72, align 4
  %74 = getelementptr inbounds [1 x [2 x i32]], [1 x [2 x i32]]* %11, i64 0, i64 0
  %75 = getelementptr inbounds [2 x i32], [2 x i32]* %74, i64 0, i64 0
  store i32 %73, i32* %75, align 4
  %76 = load i32, i32* %5, align 4
  store i32 %76, i32* %8, align 4
  br label %77

77:                                               ; preds = %66, %54
  br label %78

78:                                               ; preds = %77
  %79 = load i32, i32* %5, align 4
  %80 = add nsw i32 %79, 1
  store i32 %80, i32* %5, align 4
  br label %50

81:                                               ; preds = %50
  %82 = load i32, i32* %7, align 4
  %83 = sext i32 %82 to i64
  %84 = getelementptr inbounds [8 x [8 x i32]], [8 x [8 x i32]]* %4, i64 0, i64 %83
  %85 = load i32, i32* %8, align 4
  %86 = sext i32 %85 to i64
  %87 = getelementptr inbounds [8 x i32], [8 x i32]* %84, i64 0, i64 %86
  %88 = load i32, i32* %87, align 4
  %89 = getelementptr inbounds [1 x [2 x i32]], [1 x [2 x i32]]* %11, i64 0, i64 0
  %90 = getelementptr inbounds [2 x i32], [2 x i32]* %89, i64 0, i64 1
  store i32 %88, i32* %90, align 4
  store i32 0, i32* %9, align 4
  store i32 0, i32* %5, align 4
  br label %91

91:                                               ; preds = %119, %81
  %92 = load i32, i32* %5, align 4
  %93 = load i32, i32* %2, align 4
  %94 = icmp slt i32 %92, %93
  br i1 %94, label %95, label %122

95:                                               ; preds = %91
  %96 = load i32, i32* %5, align 4
  %97 = sext i32 %96 to i64
  %98 = getelementptr inbounds [8 x [8 x i32]], [8 x [8 x i32]]* %4, i64 0, i64 %97
  %99 = load i32, i32* %8, align 4
  %100 = sext i32 %99 to i64
  %101 = getelementptr inbounds [8 x i32], [8 x i32]* %98, i64 0, i64 %100
  %102 = load i32, i32* %101, align 4
  %103 = getelementptr inbounds [1 x [2 x i32]], [1 x [2 x i32]]* %11, i64 0, i64 0
  %104 = getelementptr inbounds [2 x i32], [2 x i32]* %103, i64 0, i64 1
  %105 = load i32, i32* %104, align 4
  %106 = icmp slt i32 %102, %105
  br i1 %106, label %107, label %118

107:                                              ; preds = %95
  %108 = load i32, i32* %5, align 4
  %109 = sext i32 %108 to i64
  %110 = getelementptr inbounds [8 x [8 x i32]], [8 x [8 x i32]]* %4, i64 0, i64 %109
  %111 = load i32, i32* %8, align 4
  %112 = sext i32 %111 to i64
  %113 = getelementptr inbounds [8 x i32], [8 x i32]* %110, i64 0, i64 %112
  %114 = load i32, i32* %113, align 4
  %115 = getelementptr inbounds [1 x [2 x i32]], [1 x [2 x i32]]* %11, i64 0, i64 0
  %116 = getelementptr inbounds [2 x i32], [2 x i32]* %115, i64 0, i64 1
  store i32 %114, i32* %116, align 4
  %117 = load i32, i32* %5, align 4
  store i32 %117, i32* %9, align 4
  br label %118

118:                                              ; preds = %107, %95
  br label %119

119:                                              ; preds = %118
  %120 = load i32, i32* %5, align 4
  %121 = add nsw i32 %120, 1
  store i32 %121, i32* %5, align 4
  br label %91

122:                                              ; preds = %91
  %123 = getelementptr inbounds [1 x [2 x i32]], [1 x [2 x i32]]* %11, i64 0, i64 0
  %124 = getelementptr inbounds [2 x i32], [2 x i32]* %123, i64 0, i64 0
  %125 = load i32, i32* %124, align 4
  %126 = getelementptr inbounds [1 x [2 x i32]], [1 x [2 x i32]]* %11, i64 0, i64 0
  %127 = getelementptr inbounds [2 x i32], [2 x i32]* %126, i64 0, i64 1
  %128 = load i32, i32* %127, align 4
  %129 = icmp eq i32 %125, %128
  br i1 %129, label %130, label %134

130:                                              ; preds = %122
  %131 = load i32, i32* %9, align 4
  %132 = load i32, i32* %8, align 4
  %133 = call i32 (i8*, ...) @printf(i8* getelementptr inbounds ([6 x i8], [6 x i8]* @.str.2, i64 0, i64 0), i32 %131, i32 %132)
  br label %137

134:                                              ; preds = %122
  %135 = load i32, i32* %10, align 4
  %136 = add nsw i32 %135, 1
  store i32 %136, i32* %10, align 4
  br label %137

137:                                              ; preds = %134, %130
  br label %138

138:                                              ; preds = %137
  %139 = load i32, i32* %7, align 4
  %140 = add nsw i32 %139, 1
  store i32 %140, i32* %7, align 4
  br label %38

141:                                              ; preds = %38
  %142 = load i32, i32* %10, align 4
  %143 = load i32, i32* %2, align 4
  %144 = icmp eq i32 %142, %143
  br i1 %144, label %145, label %147

145:                                              ; preds = %141
  %146 = call i32 (i8*, ...) @printf(i8* getelementptr inbounds ([3 x i8], [3 x i8]* @.str.3, i64 0, i64 0))
  br label %147

147:                                              ; preds = %145, %141
  ret i32 0
}

declare dso_local i32 @__isoc99_scanf(i8*, ...) #1

declare dso_local i32 @printf(i8*, ...) #1


!llvm.module.flags = !{!0}
!llvm.ident = !{!1}

!0 = !{i32 1, !"wchar_size", i32 4}
!1 = !{!"clang version 10.0.0-4ubuntu1 "}
